; Function Attrs: nounwind uwtable
define dso_local noundef zeroext i1 @llvm_emit_check_block_branch(ptr nocapture noundef %0) local_unnamed_addr #0 {
  %2 = getelementptr inbounds i8, ptr %0, i64 80
  %3 = load ptr, ptr %2, align 8
  %.not = icmp eq ptr %3, null
  br i1 %.not, label %13, label %4

4:                                                ; preds = %1
  %5 = getelementptr inbounds i8, ptr %0, i64 424
  %6 = load i8, ptr %5, align 8
  %7 = trunc i8 %6 to i1
  br i1 %7, label %13, label %8

8:                                                ; preds = %4
  %9 = tail call ptr @LLVMBasicBlockAsValue(ptr noundef nonnull %3) #7
  %10 = tail call ptr @LLVMGetFirstUse(ptr noundef %9) #7
  %.not7 = icmp eq ptr %10, null
  br i1 %.not7, label %11, label %13

11:                                               ; preds = %8
  %12 = load ptr, ptr %2, align 8
  tail call void @LLVMDeleteBasicBlock(ptr noundef %12) #7
  store ptr null, ptr %2, align 8
  br label %13

13:                                               ; preds = %4, %8, %1, %11
  %.0 = phi i1 [ false, %11 ], [ false, %1 ], [ true, %8 ], [ true, %4 ]
  ret i1 %.0
}